Certificate Revocation List (CRL):
        Version 2 (0x1)
    Signature Algorithm: sha256WithRSAEncryption
        Issuer: /CN=Python Driver CA/OU=Drivers/O=MongoDB/L=Palo Alto/ST=California/C=US
        Last Update: May 23 21:32:20 2016 GMT
        Next Update: Jun 22 21:32:20 2016 GMT
        CRL extensions:
            X509v3 CRL Number:
                4096
Revoked Certificates:
    Serial Number: 051947
        Revocation Date: May 23 21:32:20 2016 GMT
    Signature Algorithm: sha256WithRSAEncryption
         73:fb:ed:2c:70:a0:c4:02:7b:b9:87:ad:17:d3:54:e5:fd:4f:
         ae:f2:41:a4:95:93:71:35:40:c1:a4:6a:20:d1:25:3e:65:be:
         a6:7a:da:f4:0d:8b:df:ed:c1:86:8a:84:c7:2e:0a:98:d0:cd:
         e6:9a:49:c6:2d:cc:76:b2:5f:2b:de:b7:9a:12:36:04:4f:4b:
         eb:fa:10:3e:7c:5a:f1:be:37:69:d6:43:67:4b:a6:7d:c8:e2:
         95:ba:a5:ef:cb:ec:64:ce:17:69:25:7d:b1:ac:f6:05:ae:d4:
         62:37:34:38:c1:e7:c2:f9:2d:d9:f6:31:95:b9:15:cf:02:36:
         9d:52:a3:0a:cc:36:7a:02:32:a7:c1:a2:80:4a:b5:64:af:e6:
         a6:70:54:58:2e:a9:3c:83:bf:85:90:a3:eb:8c:ca:55:50:6a:
         fb:21:0f:ce:90:53:c6:70:bb:8a:0f:10:3c:43:32:75:bc:d3:
         ca:ae:eb:a0:91:d7:9b:d6:9a:ce:1e:e1:de:53:0a:cd:2c:7f:
         0e:3f:5e:6c:69:21:41:a8:13:f9:f9:2e:2e:52:7e:77:8b:27:
         7f:ff:63:ee:5c:46:10:48:58:dd:cd:9f:4a:cb:8e:3a:05:2a:
         00:70:c4:7c:2f:8b:9f:60:49:63:a3:1c:c4:82:d3:b9:cb:40:
         c0:46:31:08
-----BEGIN X509 CRL-----
MIIB5zCB0AIBATANBgkqhkiG9w0BAQsFADB1MRkwFwYDVQQDExBQeXRob24gRHJp
dmVyIENBMRAwDgYDVQQLEwdEcml2ZXJzMRAwDgYDVQQKEwdNb25nb0RCMRIwEAYD
VQQHEwlQYWxvIEFsdG8xEzARBgNVBAgTCkNhbGlmb3JuaWExCzAJBgNVBAYTAlVT
Fw0xNjA1MjMyMTMyMjBaFw0xNjA2MjIyMTMyMjBaMBYwFAIDBRlHFw0xNjA1MjMy
MTMyMjBaoA8wDTALBgNVHRQEBAICEAAwDQYJKoZIhvcNAQELBQADggEBAHP77Sxw
oMQCe7mHrRfTVOX9T67yQaSVk3E1QMGkaiDRJT5lvqZ62vQNi9/twYaKhMcuCpjQ
zeaaScYtzHayXyvet5oSNgRPS+v6ED58WvG+N2nWQ2dLpn3I4pW6pe/L7GTOF2kl
fbGs9gWu1GI3NDjB58L5Ldn2MZW5Fc8CNp1SowrMNnoCMqfBooBKtWSv5qZwVFgu
qTyDv4WQo+uMylVQavshD86QU8Zwu4oPEDxDMnW808qu66CR15vWms4e4d5TCs0s
fw4/XmxpIUGoE/n5Li5SfneLJ3//Y+5cRhBIWN3Nn0rLjjoFKgBwxHwvi59gSWOj
HMSC07nLQMBGMQg=
-----END X509 CRL-----
