Certificate Revocation List (CRL):
        Version 2 (0x1)
    Signature Algorithm: sha256WithRSAEncryption
        Issuer: /CN=Python Driver CA/OU=Drivers/O=MongoDB/L=Palo Alto/ST=California/C=US
        Last Update: Jan 31 23:00:50 2017 GMT
        Next Update: Jan 30 23:00:50 2022 GMT
        CRL extensions:
            X509v3 CRL Number:
                4096
Revoked Certificates:
    Serial Number: 051740
        Revocation Date: Jan 31 23:00:50 2017 GMT
    Serial Number: 087610
        Revocation Date: Jan 31 23:00:50 2017 GMT
    Signature Algorithm: sha256WithRSAEncryption
         50:c5:77:16:8c:6b:a7:07:9a:04:97:05:e0:48:47:cc:1c:92:
         a4:53:d6:12:91:5a:9e:b2:85:9a:20:57:cf:7c:09:58:ea:b2:
         25:c0:8b:c5:69:64:73:d6:da:ce:41:a5:ad:c0:0a:b7:df:2a:
         25:ca:59:fe:42:dd:d1:8c:56:d6:19:64:36:b7:2d:6e:f6:57:
         6a:f9:a2:3d:4a:ea:f5:d1:09:56:6d:17:89:5e:0d:b5:02:3f:
         e6:f5:74:3e:ab:78:54:80:a6:f5:dd:ac:bc:a4:77:51:e9:a7:
         e9:98:98:0e:83:e2:96:36:0f:65:f1:1e:16:6d:fb:26:bd:e6:
         f9:13:dd:68:23:15:bb:59:d9:f9:c5:31:ec:b2:98:d0:a5:df:
         45:a7:a2:4d:a5:ef:20:14:f3:bd:69:f1:e4:5b:39:f4:06:af:
         98:17:15:97:5e:5f:0e:00:6f:1c:57:cc:48:e9:3f:e6:d2:de:
         15:fa:dc:b9:d0:de:29:02:9a:7a:05:b9:c9:b0:8d:af:ec:b5:
         b4:76:fd:30:a4:6f:e4:d0:2b:dc:e5:dd:e3:ed:e9:b5:d9:d0:
         cc:e5:1b:85:0c:46:5f:d3:5e:94:c9:98:82:44:d7:e0:48:30:
         9d:ec:a5:4c:e7:a3:bf:7f:c2:4f:36:74:ea:e2:a8:cb:57:6c:
         44:b7:4f:ef
-----BEGIN X509 CRL-----
MIIB/TCB5gIBATANBgkqhkiG9w0BAQsFADB1MRkwFwYDVQQDExBQeXRob24gRHJp
dmVyIENBMRAwDgYDVQQLEwdEcml2ZXJzMRAwDgYDVQQKEwdNb25nb0RCMRIwEAYD
VQQHEwlQYWxvIEFsdG8xEzARBgNVBAgTCkNhbGlmb3JuaWExCzAJBgNVBAYTAlVT
Fw0xNzAxMzEyMzAwNTBaFw0yMjAxMzAyMzAwNTBaMCwwFAIDBRdAFw0xNzAxMzEy
MzAwNTBaMBQCAwh2EBcNMTcwMTMxMjMwMDUwWqAPMA0wCwYDVR0UBAQCAhAAMA0G
CSqGSIb3DQEBCwUAA4IBAQBQxXcWjGunB5oElwXgSEfMHJKkU9YSkVqesoWaIFfP
fAlY6rIlwIvFaWRz1trOQaWtwAq33yolyln+Qt3RjFbWGWQ2ty1u9ldq+aI9Sur1
0QlWbReJXg21Aj/m9XQ+q3hUgKb13ay8pHdR6afpmJgOg+KWNg9l8R4Wbfsmveb5
E91oIxW7Wdn5xTHsspjQpd9Fp6JNpe8gFPO9afHkWzn0Bq+YFxWXXl8OAG8cV8xI
6T/m0t4V+ty50N4pApp6BbnJsI2v7LW0dv0wpG/k0Cvc5d3j7em12dDM5RuFDEZf
016UyZiCRNfgSDCd7KVM56O/f8JPNnTq4qjLV2xEt0/v
-----END X509 CRL-----
