-----BEGIN PRIVATE KEY-----
MIIEvQIBADANBgkqhkiG9w0BAQEFAASCBKcwggSjAgEAAoIBAQCu6DrrhOOu7gCe
MG9iQAlcQwVG6RoXz/8lz416skDb5uVvzVfSEfsg4YB5qNLqcs3Hlq2WcAOZY8mY
1jF59xeatiojmqse0kgMr+GOpUiMJ/vCY8uWcgv94L+kJD25Z+Vgmo0Ja/XeBrOv
kHoDQxw3yHrEsUhD2AeZogh2BL77lCLVUIIugPWUfwOHHqjEo47lEW6RsFN8TY5V
+nJQYfIHNRHeLizVklY+5o41QsYukVsB/thTnVbmM//V89tZMUMUhhfj2QOQ9vZP
WklKOmFLn3Mvoc4eR1RXBpYHxvAVweWOheDo+OIWOrIGyGBNX7hGFmRVQeUOUSVT
rQdYfOspAgMBAAECggEASxFJxG5vB9OHOV2BWJIyUkJDgAkolULEd5ZqWtgpZRfm
rgLcJ8Fm3lhaOxzdlRj7v6coTnI54ToGOo3ngzitDU4UrN5DhkFrAeL0tDO0/M5m
S6poJORCyE4PAiQ5x5rTRBBg6sPGrOmEchvYehDyCfEF2+hYoyGTNXlpFzn3O+LD
gy1hYW/U1k6uqSGsMIc5H76+00xWSTPgpI7UcDll42bRO7Tv91QU4MqEqJhAIJ/F
TayPp6xyGT02zHmeliYC7KuYB4f85r055Ahl+97LsKnZKsLCy7wtgEHAZs0WFfWG
nR0b92WdjLdu4fZuJlyE7Lp6dBdAniLYKOi4po8XnwKBgQDx3wtZkmBJcMf7snUT
uUUCJ7A/BtAa9AboxpRBuVIUprzU3Owk9jucjcflcAFyUX4RFTtnZWYbwZDrN53J
jGDzkfUV8Y6c/tOwkYIh7n9OU63k+FOcKecelcDV4k+SptniZtXS8ZJkBJsAEBiu
q4F7r0gQacWBnqaWOMZQvzlVMwKBgQC5H80GJPz6jlenEhuK6ado5OYvHBngpOhT
XH/xOb37nRHPTQHnuUtfv5G3GYRTXA385Bh31PHbikmx+cUOYB+txY6mBWKewaC3
TVbSkAQNoFnp8+aqgeTY5yegxMzehdBEHXb8614Xo3XguRubuiKvkKLW8Eog5r2J
jQi2CCdGMwKBgQCWeTDSdOI6TlPcHtX/g0+PW6mmTFLDsfVqc8Bgcy7BckogE6FG
DXpgl0Q5VUlRGanYbuEaHlc8BVxnOZ6MeS0H21IiaLlUqqSAQMY43euNizmwLV22
1crXmErzxWvDzNHYrClypp9wYf0cOOdiI4jWreGjdGpPjagN5Rxbt9uvSQKBgEIt
gBlmN5lKMUNkUbxC8rmoujC1FvsbeIH0Wzhcr/G2oJs+qCOyNaOw0+JkmM1D5yw0
ThroYN1efiHFbBBLhIeWS/xFiI/AIDfmydbT7N8CJ6JesmLZtHlliOEL+UDDDUSM
U/DuIuDIamc/RQNScvvX9J5pn9ZLJg56AFcyavfJAoGACwAYmEjQyOLZw+PKlNqN
W3Pm8ticsTx0KDdmOZ2VbGbb/olxLhBk11KUiyZwosLjXsMG2k6j34t3Nh9Gqgwp
tBpIFd4ii/IM1PL7yXIEIHnXN6oBT+DAqTzziE7fJhYAEJWYAt43Mzlm/joJzxwN
o1aioRCmCQZCCbzfCmqW9Jo=
-----END PRIVATE KEY-----
Certificate:
    Data:
        Version: 3 (0x2)
        Serial Number: 1 (0x1)
        Signature Algorithm: sha256WithRSAEncryption
        Issuer: C=US, ST=New York, L=New York City, O=MongoDB, OU=Drivers, CN=Drivers Testing CA
        Validity
            Not Before: Jun  4 18:52:35 2026 GMT
            Not After : May 30 18:52:35 2046 GMT
        Subject: C=US, ST=New York, O=MongoDB, OU=Drivers, CN=localhost
        Subject Public Key Info:
            Public Key Algorithm: rsaEncryption
                Public-Key: (2048 bit)
                Modulus:
                    00:ae:e8:3a:eb:84:e3:ae:ee:00:9e:30:6f:62:40:
                    09:5c:43:05:46:e9:1a:17:cf:ff:25:cf:8d:7a:b2:
                    40:db:e6:e5:6f:cd:57:d2:11:fb:20:e1:80:79:a8:
                    d2:ea:72:cd:c7:96:ad:96:70:03:99:63:c9:98:d6:
                    31:79:f7:17:9a:b6:2a:23:9a:ab:1e:d2:48:0c:af:
                    e1:8e:a5:48:8c:27:fb:c2:63:cb:96:72:0b:fd:e0:
                    bf:a4:24:3d:b9:67:e5:60:9a:8d:09:6b:f5:de:06:
                    b3:af:90:7a:03:43:1c:37:c8:7a:c4:b1:48:43:d8:
                    07:99:a2:08:76:04:be:fb:94:22:d5:50:82:2e:80:
                    f5:94:7f:03:87:1e:a8:c4:a3:8e:e5:11:6e:91:b0:
                    53:7c:4d:8e:55:fa:72:50:61:f2:07:35:11:de:2e:
                    2c:d5:92:56:3e:e6:8e:35:42:c6:2e:91:5b:01:fe:
                    d8:53:9d:56:e6:33:ff:d5:f3:db:59:31:43:14:86:
                    17:e3:d9:03:90:f6:f6:4f:5a:49:4a:3a:61:4b:9f:
                    73:2f:a1:ce:1e:47:54:57:06:96:07:c6:f0:15:c1:
                    e5:8e:85:e0:e8:f8:e2:16:3a:b2:06:c8:60:4d:5f:
                    b8:46:16:64:55:41:e5:0e:51:25:53:ad:07:58:7c:
                    eb:29
                Exponent: 65537 (0x10001)
        X509v3 extensions:
            X509v3 Subject Key Identifier:
                3D:58:96:FA:DA:CE:50:8F:26:C1:85:AC:A6:4B:C7:7D:28:7C:27:5B
            X509v3 Authority Key Identifier:
                0F:AB:F0:7E:2C:2E:5F:41:49:89:9E:CF:EC:D0:FF:70:15:82:AE:5D
            X509v3 Subject Alternative Name:
                DNS:localhost, IP Address:127.0.0.1, IP Address:0:0:0:0:0:0:0:1
    Signature Algorithm: sha256WithRSAEncryption
    Signature Value:
        65:75:d0:6a:e8:ea:58:55:ae:af:b5:fd:a3:86:d9:c6:a8:3b:
        d0:3d:e8:fd:90:66:71:46:33:75:ee:47:73:85:25:88:8c:5c:
        ff:74:db:95:2a:d4:16:18:0c:ac:5c:46:b7:32:bd:56:66:1e:
        22:48:a5:5f:c3:01:57:bc:f7:9a:49:a6:92:54:f1:85:9d:5f:
        d5:49:18:9a:c3:36:1a:e6:a3:d3:06:18:fa:b8:0a:11:db:ff:
        91:35:42:7e:68:9c:16:31:f2:36:2c:a3:1e:61:36:d4:51:e0:
        e0:f8:1a:a9:75:b9:3d:ae:07:5f:9b:8c:1d:5a:69:d4:38:21:
        e3:75:93:6d:95:ac:2d:c6:02:7a:97:dd:e1:b5:62:3c:7f:b3:
        6a:e3:2a:c7:18:bb:30:7c:c6:b8:10:69:9e:3c:76:9e:f0:60:
        ac:9b:4e:8b:18:1f:4b:89:34:f4:4f:46:3d:57:6a:7a:2f:1d:
        13:77:1d:87:ca:94:92:e0:9e:d8:93:e3:7c:95:15:6c:ce:d1:
        75:bc:dd:2f:9e:6c:dd:59:13:86:80:49:17:67:fe:77:75:51:
        18:6c:cd:70:9a:66:be:41:cc:c2:24:be:75:4a:95:78:67:cd:
        57:cf:d0:c2:0d:0e:ff:ac:f9:f6:37:a6:df:d3:d6:6d:e8:8e:
        ae:df:1f:11
-----BEGIN CERTIFICATE-----
MIIDvDCCAqSgAwIBAgIBATANBgkqhkiG9w0BAQsFADB5MQswCQYDVQQGEwJVUzER
MA8GA1UECAwITmV3IFlvcmsxFjAUBgNVBAcMDU5ldyBZb3JrIENpdHkxEDAOBgNV
BAoMB01vbmdvREIxEDAOBgNVBAsMB0RyaXZlcnMxGzAZBgNVBAMMEkRyaXZlcnMg
VGVzdGluZyBDQTAeFw0yNjA2MDQxODUyMzVaFw00NjA1MzAxODUyMzVaMFgxCzAJ
BgNVBAYTAlVTMREwDwYDVQQIDAhOZXcgWW9yazEQMA4GA1UECgwHTW9uZ29EQjEQ
MA4GA1UECwwHRHJpdmVyczESMBAGA1UEAwwJbG9jYWxob3N0MIIBIjANBgkqhkiG
9w0BAQEFAAOCAQ8AMIIBCgKCAQEArug664Tjru4AnjBvYkAJXEMFRukaF8//Jc+N
erJA2+blb81X0hH7IOGAeajS6nLNx5atlnADmWPJmNYxefcXmrYqI5qrHtJIDK/h
jqVIjCf7wmPLlnIL/eC/pCQ9uWflYJqNCWv13gazr5B6A0McN8h6xLFIQ9gHmaII
dgS++5Qi1VCCLoD1lH8Dhx6oxKOO5RFukbBTfE2OVfpyUGHyBzUR3i4s1ZJWPuaO
NULGLpFbAf7YU51W5jP/1fPbWTFDFIYX49kDkPb2T1pJSjphS59zL6HOHkdUVwaW
B8bwFcHljoXg6PjiFjqyBshgTV+4RhZkVUHlDlElU60HWHzrKQIDAQABo3AwbjAd
BgNVHQ4EFgQUPViW+trOUI8mwYWspkvHfSh8J1swHwYDVR0jBBgwFoAUD6vwfiwu
X0FJiZ7P7ND/cBWCrl0wLAYDVR0RBCUwI4IJbG9jYWxob3N0hwR/AAABhxAAAAAA
AAAAAAAAAAAAAAABMA0GCSqGSIb3DQEBCwUAA4IBAQBlddBq6OpYVa6vtf2jhtnG
qDvQPej9kGZxRjN17kdzhSWIjFz/dNuVKtQWGAysXEa3Mr1WZh4iSKVfwwFXvPea
SaaSVPGFnV/VSRiawzYa5qPTBhj6uAoR2/+RNUJ+aJwWMfI2LKMeYTbUUeDg+Bqp
dbk9rgdfm4wdWmnUOCHjdZNtlawtxgJ6l93htWI8f7Nq4yrHGLswfMa4EGmePHae
8GCsm06LGB9LiTT0T0Y9V2p6Lx0Tdx2HypSS4J7Yk+N8lRVsztF1vN0vnmzdWROG
gEkXZ/53dVEYbM1wmma+QczCJL51SpV4Z81Xz9DCDQ7/rPn2N6bf09Zt6I6u3x8R
-----END CERTIFICATE-----
