-----BEGIN PRIVATE KEY-----
MIIEvQIBADANBgkqhkiG9w0BAQEFAASCBKcwggSjAgEAAoIBAQCuozfwg4XDRJs5
zPCIEAd3iiS2z+G68X0N444O1Yb/35UslCY2ZkKWs738I/A9AI1Tm74C4l1PMHNO
OlCMcYg2w/fu3VuAa6E7QwPwjRhnoRYl2lgDX+TVKcHXOmD8bKZB+S9V7Rl6CANs
pLqeSlGBQqXORJ2nu0teou6BZUJ9qcRbsC/aHlQleOr13jx1+sfPvwK8rrBeYqH/
pA982scfE/PU6QnB2v+9Wd/hHt7073ssIE8lsKxoJtSsfebyV5kn48e5kPKWnbLk
ONbD5QRzCs7Z8GbIrzGkXV4mRwUVK5+fCmhVE93g+99paeJpcXOrBmkCTkL9WTyg
GW0vGhDLAgMBAAECggEABaKOnjF1kiTB6COMv1cvu9O2oOTO9nvu+mZqobU8yJTW
ThHvCbeoU7neWicZYV6F249y73TjveJlAL6GStcppgVnbUsHNiWYQOlF/0UOPInI
xSqTxx1uV30kHBBuK2GgxmWGpCclDfhO4/qMwFQgPSOBZh52AoDbSw/G0mC0vIk9
ddiGMvQHRgh/JEk1vrIqE+lEdiccPNswC2G2FyXWHia6plpZ0VAZXfQH6R4ttykF
CfHUk1gNDuGrXtwHicF4d6XXZsnuPkBQZ/GWmu51gGu5Xhr0TmXY/NPRhamsqsjn
lkrNGV25VxZX1lGM//cqL77Om7m9k5Rx9gnp+8n1QQKBgQDj09FNvc6kB8QzZ3Dn
1YMnNKpSiu5d8qW8iUGUMLIF+d+KTkHa7nLBfjEOUyCVOJh80pUFhvXwL4RtZ72A
Ln2EWZWYxN7aNzuTXQIO6zit+BgosCf2Vqgu06yZtmZARFNxTRRImRwUsPGaqnBH
drxJpQfuomNJfCJ4MY8OmC/URQKBgQDEO5rsV8OioXI7+y0qWSJO113sofwT9VSt
JCy26oN59sbgrcFPohsWISEBrYnjuPEeRf0Z3Hl52Tt49btuIqPmga2II/1Zj6ip
V9cTzwVij3XSfdb/SwcV3GBCzhQjgl6C/1ocpayQHGLaS47+hHFu6sGp2JyxhDKL
owO/twsJzwKBgQCU5crVVEfJTIoeTmysGA8vgGwQplxDamKHZe1GPM0cusIuUhcY
Tt8RNrg49HtHC0YdzkM26Y2y/FtAZZykOb4u0Z3Dymcblx2IojDGL1VL3elsLjTv
+pLQh+c2Ts9lEUK3ufiXuflwTHSa8OmQyzkjqIgWnmrljAu7IiitESmxQQKBgDEH
C1/9VX2uhJID4XbxKic0m9zhY8/AvdU8coeI9Cxmwa2k++VfhRD0WgDHUOo6bNO5
fNEXSqps4fUIwDl2IikXQToAc+4KfINC1RO354qGeVOL6UmDf1Ow6cQHJPTyP5bP
Ib6Cjii7Tt9nfWSNxqGFubkry4p2kwJcSjV+EB31AoGAMv52cz2i3FDSHYBv+QRF
VrTEfMlV63o/zPYKRx0ZF+9b6Br8z4emeNnb6Fu7nk5glliGMsPbGT/0P2OPYl8/
Q2Tcp/QlvAtQbeCsOvUQgi0eThxgskcNOMefAr7BFcHSZVgrGixDGrIiIViJGQMF
IyTjmZ1yDgFmUwf8ULuxegw=
-----END PRIVATE KEY-----
Certificate:
    Data:
        Version: 3 (0x2)
        Serial Number: 1 (0x1)
        Signature Algorithm: sha256WithRSAEncryption
        Issuer: C=US, ST=New York, L=New York City, O=MongoDB, OU=Drivers, CN=Drivers Testing CA
        Validity
            Not Before: Jun  5 01:09:26 2026 GMT
            Not After : May 31 01:09:26 2046 GMT
        Subject: C=US, ST=New York, O=MongoDB, OU=Drivers, CN=localhost
        Subject Public Key Info:
            Public Key Algorithm: rsaEncryption
                Public-Key: (2048 bit)
                Modulus:
                    00:ae:a3:37:f0:83:85:c3:44:9b:39:cc:f0:88:10:
                    07:77:8a:24:b6:cf:e1:ba:f1:7d:0d:e3:8e:0e:d5:
                    86:ff:df:95:2c:94:26:36:66:42:96:b3:bd:fc:23:
                    f0:3d:00:8d:53:9b:be:02:e2:5d:4f:30:73:4e:3a:
                    50:8c:71:88:36:c3:f7:ee:dd:5b:80:6b:a1:3b:43:
                    03:f0:8d:18:67:a1:16:25:da:58:03:5f:e4:d5:29:
                    c1:d7:3a:60:fc:6c:a6:41:f9:2f:55:ed:19:7a:08:
                    03:6c:a4:ba:9e:4a:51:81:42:a5:ce:44:9d:a7:bb:
                    4b:5e:a2:ee:81:65:42:7d:a9:c4:5b:b0:2f:da:1e:
                    54:25:78:ea:f5:de:3c:75:fa:c7:cf:bf:02:bc:ae:
                    b0:5e:62:a1:ff:a4:0f:7c:da:c7:1f:13:f3:d4:e9:
                    09:c1:da:ff:bd:59:df:e1:1e:de:f4:ef:7b:2c:20:
                    4f:25:b0:ac:68:26:d4:ac:7d:e6:f2:57:99:27:e3:
                    c7:b9:90:f2:96:9d:b2:e4:38:d6:c3:e5:04:73:0a:
                    ce:d9:f0:66:c8:af:31:a4:5d:5e:26:47:05:15:2b:
                    9f:9f:0a:68:55:13:dd:e0:fb:df:69:69:e2:69:71:
                    73:ab:06:69:02:4e:42:fd:59:3c:a0:19:6d:2f:1a:
                    10:cb
                Exponent: 65537 (0x10001)
        X509v3 extensions:
            X509v3 Subject Key Identifier:
                CC:CC:54:7B:F2:87:66:CD:2A:F4:75:39:36:9B:60:45:1D:3A:FE:44
            X509v3 Authority Key Identifier:
                15:54:83:B3:1C:29:D7:B3:A0:B4:09:4D:E8:83:0B:1A:1B:99:6E:45
            X509v3 Subject Alternative Name:
                DNS:localhost, IP Address:127.0.0.1, IP Address:0:0:0:0:0:0:0:1
    Signature Algorithm: sha256WithRSAEncryption
    Signature Value:
        3a:72:ef:6a:0c:6a:f1:a6:e2:bc:11:e8:ab:71:01:3c:6f:20:
        35:fc:22:a3:6e:d2:91:6c:08:93:d2:ae:61:37:72:88:8a:73:
        80:87:ec:61:c8:25:e9:e9:df:0f:6b:fb:50:27:36:0f:a5:b0:
        71:1c:9f:c3:fe:94:5f:b2:f4:30:56:81:7a:4e:51:f9:30:cd:
        de:0d:90:39:86:3f:c2:f0:cb:8d:c5:29:4a:7d:27:1d:78:5d:
        e5:3e:a7:90:08:06:5a:0a:1d:50:d7:39:8d:ee:a4:58:3f:30:
        44:d4:89:dc:94:8f:66:4e:0b:7b:94:e1:06:67:ed:23:ab:22:
        e8:77:18:fa:d1:6e:46:df:bd:75:de:c5:d2:b1:ac:ef:df:07:
        da:b0:85:2d:47:18:fc:fb:d3:de:10:fb:e0:35:ef:d4:ef:0c:
        f5:d4:d6:84:3d:22:fe:44:c9:d2:48:44:ec:24:69:52:15:9d:
        99:52:bc:e7:04:9b:15:85:7e:e0:06:12:bb:ba:96:58:78:a6:
        61:fa:33:01:7c:76:43:6c:c5:3d:11:c5:e1:9b:e8:59:d1:96:
        8c:30:21:e4:73:82:7f:44:76:fb:d2:f1:54:a7:b2:1a:28:ad:
        28:bd:f7:9a:47:ef:dc:b2:1b:26:d7:fe:0a:0d:ae:bd:38:13:
        61:43:f3:e3
-----BEGIN CERTIFICATE-----
MIIDvDCCAqSgAwIBAgIBATANBgkqhkiG9w0BAQsFADB5MQswCQYDVQQGEwJVUzER
MA8GA1UECAwITmV3IFlvcmsxFjAUBgNVBAcMDU5ldyBZb3JrIENpdHkxEDAOBgNV
BAoMB01vbmdvREIxEDAOBgNVBAsMB0RyaXZlcnMxGzAZBgNVBAMMEkRyaXZlcnMg
VGVzdGluZyBDQTAeFw0yNjA2MDUwMTA5MjZaFw00NjA1MzEwMTA5MjZaMFgxCzAJ
BgNVBAYTAlVTMREwDwYDVQQIDAhOZXcgWW9yazEQMA4GA1UECgwHTW9uZ29EQjEQ
MA4GA1UECwwHRHJpdmVyczESMBAGA1UEAwwJbG9jYWxob3N0MIIBIjANBgkqhkiG
9w0BAQEFAAOCAQ8AMIIBCgKCAQEArqM38IOFw0SbOczwiBAHd4okts/huvF9DeOO
DtWG/9+VLJQmNmZClrO9/CPwPQCNU5u+AuJdTzBzTjpQjHGINsP37t1bgGuhO0MD
8I0YZ6EWJdpYA1/k1SnB1zpg/GymQfkvVe0ZeggDbKS6nkpRgUKlzkSdp7tLXqLu
gWVCfanEW7Av2h5UJXjq9d48dfrHz78CvK6wXmKh/6QPfNrHHxPz1OkJwdr/vVnf
4R7e9O97LCBPJbCsaCbUrH3m8leZJ+PHuZDylp2y5DjWw+UEcwrO2fBmyK8xpF1e
JkcFFSufnwpoVRPd4PvfaWniaXFzqwZpAk5C/Vk8oBltLxoQywIDAQABo3AwbjAd
BgNVHQ4EFgQUzMxUe/KHZs0q9HU5NptgRR06/kQwHwYDVR0jBBgwFoAUFVSDsxwp
17OgtAlN6IMLGhuZbkUwLAYDVR0RBCUwI4IJbG9jYWxob3N0hwR/AAABhxAAAAAA
AAAAAAAAAAAAAAABMA0GCSqGSIb3DQEBCwUAA4IBAQA6cu9qDGrxpuK8EeircQE8
byA1/CKjbtKRbAiT0q5hN3KIinOAh+xhyCXp6d8Pa/tQJzYPpbBxHJ/D/pRfsvQw
VoF6TlH5MM3eDZA5hj/C8MuNxSlKfScdeF3lPqeQCAZaCh1Q1zmN7qRYPzBE1Inc
lI9mTgt7lOEGZ+0jqyLodxj60W5G37113sXSsazv3wfasIUtRxj8+9PeEPvgNe/U
7wz11NaEPSL+RMnSSETsJGlSFZ2ZUrznBJsVhX7gBhK7upZYeKZh+jMBfHZDbMU9
EcXhm+hZ0ZaMMCHkc4J/RHb70vFUp7IaKK0ovfeaR+/cshsm1/4KDa69OBNhQ/Pj
-----END CERTIFICATE-----
