-----BEGIN PRIVATE KEY-----
MIIEvQIBADANBgkqhkiG9w0BAQEFAASCBKcwggSjAgEAAoIBAQC+qUpDlPLxEh16
vAuN0M/t7i5cGBU3UQu+MfA9l59iPV6Yme9PQOMXiATEb7yp5G7AaqHqoofz7ntV
ZaPF82ZRGb2jOwplU2wsCIGKO+4ujUaZPThZgLXR7sVX6qSfRM4PYjSqm1Cv5AYC
GOHK1hesAMP5sGdf4LGIIWL9ngEAPrwARpgxVS7RtH1GX5yWUpYjhEyjpMWXkYUE
wFll00LGOqiK+U7V2yyCRU4BUSggFLhbL1n6z1eMFxHwAgJZo/boodPCPhxXFU+c
wFvQbiBlABujyY+iHkSpyytM13hUoWBfM3FLB2zSgmKMAbvaPs+CNjapW1kJGaBg
L1HfqcS3AgMBAAECggEAUTazV44+3cklnX40PbhQmbz3KmtnviRbqCyFdPb9AU+6
163abhvpn8Bkp3ghGQ0gz/2b8uJAnvtatcmRtWQ0lR8t1DX1+6tJTIhjBYr5rgKn
q+aT9iwJRt86WHSuotkgHRVr8bAu8n1iwcnvhAMmGjJJSDaIEiMX/DCchgOj0YIq
VLJYQkrj6Dii33GeF5eQ4jr27I1RIQSvDEvSffuJpKNbWFap+/epja1MZIenioiu
Vrm6jLPtlqacpREPL8pCGTlAd0GM/nJ/8BrzrodL0P+h7FwnpfDENTWnE9oVSMdL
1t4c1psf3X+hYyMOs9/jtVzoXzeVraGHvwyopv5k4QKBgQD0Dl1PsISWg8mp6CVW
aeIG3cO8oUh5oxwmLQRS16//GMIJCo5o8+6W+3qI6ZGOwwo/THm/GKyuYUN8UKrx
+iNhDJbab3YM24lXDA5QFqO8Dv2JhyXfAb5DQk1ZsdIjbfA6G9T65Foa6dl0IXmi
ByfGXa+tRPNThUvV6XRUEelA5QKBgQDH/fkoU+NIRgaaEiVQneFZz6OlnnmEM+/+
/Ctm09nCFJLZt8nFisD+F9dVKSv0m1xWgkrG4Pm9bbHq1iBn/09qNp2Jn6W5bYoB
RYI3EdXjb0B/vAm8295afEXXGA6szOZLlcY8sc0QPkdxMmeoV4XkFTlFBE0gNTPm
Q1YCk1PBawKBgDHsVk4cz6JyZugooqqgkinRZ17IpyiqovF0N/QyRsAp8lcjH6p8
a4va+V/UV4AaiZgVLrpWc8xf/QwK/EzvXBlYF+uq7T0IE3oI70yWtPudHWPqj2ak
1qSvhV8ZruCsdn2Mf+6qk3v55g+JYXYxfINpWqxY9GVbWP3y+WbRGyO5AoGAO7nJ
UxXaZpcjGZgZtL2xsxSjlq6BM84e+lNs0sSp36AtSv/sLiaGBFwyXqhxDBfpt5wp
oMNHUh8UZ0GTY/uHR/0Phy46W+ousLqFbNTSv51V8c/CSLiQ6wz5/oacu1Zl4GTW
UwH2b8dpppCbDFc3ESqVc9sY/WlmGno5kYNWHAkCgYEAhd7xgqJUpM7Klbsl3BR/
6iEZ30Exf1wlC+nWJSK4iHFH9l9BGHjImENxpKa62Akm0VvE9n1KgKxK1IESziiE
9kAXspYyBT/clOo4v0w5rPIiQ3itm5+ew9gaFiJ+Yfi8MYTIwznsqXvyekqLSrFo
w9efOvZV+XaA79X+bEEd2BA=
-----END PRIVATE KEY-----
Certificate:
    Data:
        Version: 3 (0x2)
        Serial Number: 1 (0x1)
        Signature Algorithm: sha256WithRSAEncryption
        Issuer: C=US, ST=New York, L=New York City, O=MongoDB, OU=Drivers, CN=Drivers Testing CA
        Validity
            Not Before: Jun  5 01:43:18 2026 GMT
            Not After : May 31 01:43:18 2046 GMT
        Subject: C=US, ST=New York, O=MongoDB, OU=Drivers, CN=localhost
        Subject Public Key Info:
            Public Key Algorithm: rsaEncryption
                Public-Key: (2048 bit)
                Modulus:
                    00:be:a9:4a:43:94:f2:f1:12:1d:7a:bc:0b:8d:d0:
                    cf:ed:ee:2e:5c:18:15:37:51:0b:be:31:f0:3d:97:
                    9f:62:3d:5e:98:99:ef:4f:40:e3:17:88:04:c4:6f:
                    bc:a9:e4:6e:c0:6a:a1:ea:a2:87:f3:ee:7b:55:65:
                    a3:c5:f3:66:51:19:bd:a3:3b:0a:65:53:6c:2c:08:
                    81:8a:3b:ee:2e:8d:46:99:3d:38:59:80:b5:d1:ee:
                    c5:57:ea:a4:9f:44:ce:0f:62:34:aa:9b:50:af:e4:
                    06:02:18:e1:ca:d6:17:ac:00:c3:f9:b0:67:5f:e0:
                    b1:88:21:62:fd:9e:01:00:3e:bc:00:46:98:31:55:
                    2e:d1:b4:7d:46:5f:9c:96:52:96:23:84:4c:a3:a4:
                    c5:97:91:85:04:c0:59:65:d3:42:c6:3a:a8:8a:f9:
                    4e:d5:db:2c:82:45:4e:01:51:28:20:14:b8:5b:2f:
                    59:fa:cf:57:8c:17:11:f0:02:02:59:a3:f6:e8:a1:
                    d3:c2:3e:1c:57:15:4f:9c:c0:5b:d0:6e:20:65:00:
                    1b:a3:c9:8f:a2:1e:44:a9:cb:2b:4c:d7:78:54:a1:
                    60:5f:33:71:4b:07:6c:d2:82:62:8c:01:bb:da:3e:
                    cf:82:36:36:a9:5b:59:09:19:a0:60:2f:51:df:a9:
                    c4:b7
                Exponent: 65537 (0x10001)
        X509v3 extensions:
            X509v3 Subject Key Identifier:
                90:97:88:F8:24:23:75:CF:5A:A6:3A:DF:44:A3:5A:DD:84:57:B2:F9
            X509v3 Authority Key Identifier:
                07:9D:08:22:B3:EE:46:88:BC:AF:66:92:91:CB:76:1C:9F:1A:D1:72
            X509v3 Subject Alternative Name:
                DNS:localhost, IP Address:127.0.0.1, IP Address:0:0:0:0:0:0:0:1
    Signature Algorithm: sha256WithRSAEncryption
    Signature Value:
        0e:70:c7:0a:1a:ff:56:d8:e4:07:d0:e1:89:e8:0e:54:75:e5:
        66:73:28:88:5f:18:26:4f:32:af:8a:a4:74:2d:b1:70:38:68:
        0d:53:42:b9:82:be:77:f7:2c:31:c6:9b:42:68:f9:c8:d0:dc:
        3f:0e:48:89:b1:87:1d:14:f9:f8:ef:8f:63:3c:75:f3:79:dc:
        a3:7c:de:8e:4f:29:2b:4c:17:99:da:69:43:9e:c0:03:28:f5:
        d1:97:0f:14:58:de:80:15:58:7b:97:53:74:78:91:07:80:28:
        76:88:f6:f3:2a:49:23:95:2e:7e:bd:32:e3:1e:c0:a2:62:7f:
        3a:a7:f5:96:a8:91:90:c4:ed:31:66:80:01:0e:32:95:20:5b:
        6f:de:69:86:ea:48:ba:1b:bb:21:e9:49:07:31:8e:ba:2a:b7:
        3f:61:d1:a2:2b:fb:0c:16:17:9c:b3:c1:d6:ca:b4:af:74:3e:
        48:ca:c0:81:94:4e:ab:b9:65:b6:71:24:66:8b:ff:02:28:7b:
        f7:d7:c9:63:3d:22:8c:54:dc:79:ce:e5:82:b0:64:68:3e:8a:
        84:96:80:73:2c:e8:e3:2c:19:34:3a:dc:cf:1f:ff:e1:b6:4c:
        f9:b3:d2:2a:cb:ae:8d:76:aa:b9:cd:b5:80:75:6a:d2:b8:74:
        ba:96:ad:e3
-----BEGIN CERTIFICATE-----
MIIDvDCCAqSgAwIBAgIBATANBgkqhkiG9w0BAQsFADB5MQswCQYDVQQGEwJVUzER
MA8GA1UECAwITmV3IFlvcmsxFjAUBgNVBAcMDU5ldyBZb3JrIENpdHkxEDAOBgNV
BAoMB01vbmdvREIxEDAOBgNVBAsMB0RyaXZlcnMxGzAZBgNVBAMMEkRyaXZlcnMg
VGVzdGluZyBDQTAeFw0yNjA2MDUwMTQzMThaFw00NjA1MzEwMTQzMThaMFgxCzAJ
BgNVBAYTAlVTMREwDwYDVQQIDAhOZXcgWW9yazEQMA4GA1UECgwHTW9uZ29EQjEQ
MA4GA1UECwwHRHJpdmVyczESMBAGA1UEAwwJbG9jYWxob3N0MIIBIjANBgkqhkiG
9w0BAQEFAAOCAQ8AMIIBCgKCAQEAvqlKQ5Ty8RIderwLjdDP7e4uXBgVN1ELvjHw
PZefYj1emJnvT0DjF4gExG+8qeRuwGqh6qKH8+57VWWjxfNmURm9ozsKZVNsLAiB
ijvuLo1GmT04WYC10e7FV+qkn0TOD2I0qptQr+QGAhjhytYXrADD+bBnX+CxiCFi
/Z4BAD68AEaYMVUu0bR9Rl+cllKWI4RMo6TFl5GFBMBZZdNCxjqoivlO1dssgkVO
AVEoIBS4Wy9Z+s9XjBcR8AICWaP26KHTwj4cVxVPnMBb0G4gZQAbo8mPoh5Eqcsr
TNd4VKFgXzNxSwds0oJijAG72j7PgjY2qVtZCRmgYC9R36nEtwIDAQABo3AwbjAd
BgNVHQ4EFgQUkJeI+CQjdc9apjrfRKNa3YRXsvkwHwYDVR0jBBgwFoAUB50IIrPu
Roi8r2aSkct2HJ8a0XIwLAYDVR0RBCUwI4IJbG9jYWxob3N0hwR/AAABhxAAAAAA
AAAAAAAAAAAAAAABMA0GCSqGSIb3DQEBCwUAA4IBAQAOcMcKGv9W2OQH0OGJ6A5U
deVmcyiIXxgmTzKviqR0LbFwOGgNU0K5gr539ywxxptCaPnI0Nw/DkiJsYcdFPn4
749jPHXzedyjfN6OTykrTBeZ2mlDnsADKPXRlw8UWN6AFVh7l1N0eJEHgCh2iPbz
KkkjlS5+vTLjHsCiYn86p/WWqJGQxO0xZoABDjKVIFtv3mmG6ki6G7sh6UkHMY66
Krc/YdGiK/sMFhecs8HWyrSvdD5IysCBlE6ruWW2cSRmi/8CKHv318ljPSKMVNx5
zuWCsGRoPoqEloBzLOjjLBk0OtzPH//htkz5s9Iqy66Ndqq5zbWAdWrSuHS6lq3j
-----END CERTIFICATE-----
