-----BEGIN PRIVATE KEY-----
MIIEvAIBADANBgkqhkiG9w0BAQEFAASCBKYwggSiAgEAAoIBAQCtbTLMvCR2XPs1
J01nXbnpvcWwwBWQuWwbMZlqNvZPiAgQgjuRmzTlvB/MMgbTPb8mynE9HtnjW0Kq
HDqAXUvBstGSd67Pjd9WCTLcV+JJ7IufUp7SuaijGlVLgtDTNoJ2s4lUN5DWZyx5
EL8uHH1fXaNurDglGC//F2shUhNlO8xpZXMaKahJZwmsU7aeA9xvrudGwkYQm8Vl
+Zrj24t4J4Oy+7TJEzVZ8lH3wZ9FkG/eiozURmL9uK8bG6DmhqztEKZFpy5LUBY/
RL2Y1Mcxec0wHxSamRslx3dAcnCutR3A4bs8OoXIwoZoIEQDOFoge67q8sl5lyaZ
SpmsJEq/AgMBAAECggEAALAiN3W3n1CXHordX7+bcTXzhtP8Qeq6ZxE3TpiROZeM
kKQzoExBVXf9mE3KgSQJkhnTgS6SJrjB9vLNuJymJEqVUkNvShuB+1FmBkHDABAU
LbmiL6vU43DDTd1i/rOEqPvlW5Qs2uzl3EUYvRIX3Tz93P6J6nvCFPz+y88LjKdC
aCsA60Hd+cQQ9dJa2qZ5db4YkU2cwGFdMtLEsdGy7SKviOscaTWDFoy6LR+lgqRN
jGoUOSCSzfyXcsDl2Cu36jnQWj7d6tmhTPkdRMPXEvFj7+s0xmB6Z/I3kMFHBCJq
6dAJ2if07JOiPK+AgFAQiK0DndqyTV5FJD21jlmEIQKBgQDY68V7bktXS0nquPGZ
WKnBm/vyulH1PwpTFQHyPAzEUU0jjRaEKYHhTzZu0728HZi8Yw24X3BtcxSQVHeb
8Hz1JCpvVPp+G/jxa+qxwz0upBJPy8rfz7N4R0OjSxVKe/7zu+cl7gAyb0hyo3cf
3pFOGRw5LwlA6dv7U9eOrPGS5QKBgQDMq39juOEKdjIRRsPpFMhF77SefnobqBm8
9mpZTs4LQNXG8BcUvS6S/xmyDocznFYJbBm9m2+gUCidc5edgkimHdfcTAccxXKQ
ihTimWxubXB4KhhyP9EsTC2ppcPGSO49fCosvqmCFflGp2EUkl9SMSv40UP2xk5b
/7BJ9EvY0wKBgGwMZH2q3pRIyDTGknETnNr3W3P4IsLJ99aSbDnAd4uCA65lpIWI
N02HK1Hg3m1JQL71h+wCffnGjMOnjzx5eYSR0yFJbsxKGqIGYwzQdzU4PHbKx+7b
gkWzGZnI2H4VbVTyj5xxBGAa1jdj/P4+2pnQICLLrwxKcGyrwn8q3dmRAoGAckKP
1LFC2R9RJjn2ZyoWAI0orY74RnZbIBYFGySWfMvOTMh+ajKPTLsjsjbQHez6TzpN
SH/9GmeFtRjyHJm+SxbACplbIyHLqouby0FRunhYYI1HpoigEvXYTCxhllHixuqJ
dP9gDGKODnalCOIKWw1eegMByUO+PTgKR88dhMcCgYA6LNAlqxBwO6dTPQFvGlqS
d67iKwyjbK06iyjvcNf2q4/jh8MC8au8gHDxXG+I5Gp3nMXncuG4GG5Ii/tKX3kt
/6B3b3tlFmdsAmI8xEpiHhDBDXINLRs+w7rkl5oNduHKkCWd9r9KduupJDvTo78h
9yuZwMwRFAIPx9P3YL1SeA==
-----END PRIVATE KEY-----
Certificate:
    Data:
        Version: 3 (0x2)
        Serial Number: 1 (0x1)
        Signature Algorithm: sha256WithRSAEncryption
        Issuer: C=US, ST=New York, L=New York City, O=MongoDB, OU=Drivers, CN=Drivers Testing CA
        Validity
            Not Before: Jun  4 19:49:32 2026 GMT
            Not After : May 30 19:49:32 2046 GMT
        Subject: C=US, ST=New York, O=MongoDB, OU=Drivers, CN=localhost
        Subject Public Key Info:
            Public Key Algorithm: rsaEncryption
                Public-Key: (2048 bit)
                Modulus:
                    00:ad:6d:32:cc:bc:24:76:5c:fb:35:27:4d:67:5d:
                    b9:e9:bd:c5:b0:c0:15:90:b9:6c:1b:31:99:6a:36:
                    f6:4f:88:08:10:82:3b:91:9b:34:e5:bc:1f:cc:32:
                    06:d3:3d:bf:26:ca:71:3d:1e:d9:e3:5b:42:aa:1c:
                    3a:80:5d:4b:c1:b2:d1:92:77:ae:cf:8d:df:56:09:
                    32:dc:57:e2:49:ec:8b:9f:52:9e:d2:b9:a8:a3:1a:
                    55:4b:82:d0:d3:36:82:76:b3:89:54:37:90:d6:67:
                    2c:79:10:bf:2e:1c:7d:5f:5d:a3:6e:ac:38:25:18:
                    2f:ff:17:6b:21:52:13:65:3b:cc:69:65:73:1a:29:
                    a8:49:67:09:ac:53:b6:9e:03:dc:6f:ae:e7:46:c2:
                    46:10:9b:c5:65:f9:9a:e3:db:8b:78:27:83:b2:fb:
                    b4:c9:13:35:59:f2:51:f7:c1:9f:45:90:6f:de:8a:
                    8c:d4:46:62:fd:b8:af:1b:1b:a0:e6:86:ac:ed:10:
                    a6:45:a7:2e:4b:50:16:3f:44:bd:98:d4:c7:31:79:
                    cd:30:1f:14:9a:99:1b:25:c7:77:40:72:70:ae:b5:
                    1d:c0:e1:bb:3c:3a:85:c8:c2:86:68:20:44:03:38:
                    5a:20:7b:ae:ea:f2:c9:79:97:26:99:4a:99:ac:24:
                    4a:bf
                Exponent: 65537 (0x10001)
        X509v3 extensions:
            X509v3 Subject Key Identifier:
                99:CA:D6:55:64:61:E3:D9:76:00:D1:9B:A1:D7:49:17:8D:5B:6E:DA
            X509v3 Authority Key Identifier:
                CB:59:69:A6:5B:8C:7C:3A:3B:9B:DF:C9:9B:41:13:6D:2D:80:63:21
            X509v3 Subject Alternative Name:
                DNS:localhost, IP Address:127.0.0.1, IP Address:0:0:0:0:0:0:0:1
    Signature Algorithm: sha256WithRSAEncryption
    Signature Value:
        be:88:47:6a:1f:07:13:1a:5a:5e:08:1a:1f:b4:9c:2b:21:7c:
        4d:6d:c2:8b:b0:af:50:7c:87:b7:23:13:3f:1d:ff:c1:f4:52:
        a6:c1:93:d6:85:ee:8d:ed:93:4f:35:c5:87:fa:8f:23:dd:11:
        d0:76:32:8a:15:ef:53:ce:cc:e4:89:bc:9a:23:5d:8c:81:b7:
        10:2a:e6:c1:39:d5:f8:88:39:66:93:e3:2f:7c:55:34:d1:c9:
        6e:71:77:30:b1:32:49:35:59:f9:d8:16:c8:ad:77:33:5f:18:
        c5:75:3f:e5:8a:ed:5a:d3:8b:21:5c:68:66:fd:62:c3:e7:46:
        cb:b4:a6:bf:fe:f8:77:68:8b:c9:c3:a6:7a:1b:af:ee:ce:b1:
        8f:49:8e:a3:a5:c5:a9:d7:68:dc:97:54:d6:f2:f0:59:00:41:
        66:1a:c2:7d:26:da:dd:96:fd:ba:98:da:a3:88:86:17:93:4b:
        4f:b1:65:2c:20:c0:ad:46:73:b8:88:54:2f:0f:39:bc:e9:c8:
        d5:3b:69:33:43:75:a3:3b:20:46:e3:fc:f2:8c:0f:11:55:ae:
        02:ef:05:9e:59:bb:ad:e8:b9:cd:f9:7b:5a:5d:93:fa:46:f6:
        e0:29:c2:95:7d:30:22:fb:56:53:4a:82:c3:7b:88:49:f0:a1:
        a6:ae:c1:c0
-----BEGIN CERTIFICATE-----
MIIDvDCCAqSgAwIBAgIBATANBgkqhkiG9w0BAQsFADB5MQswCQYDVQQGEwJVUzER
MA8GA1UECAwITmV3IFlvcmsxFjAUBgNVBAcMDU5ldyBZb3JrIENpdHkxEDAOBgNV
BAoMB01vbmdvREIxEDAOBgNVBAsMB0RyaXZlcnMxGzAZBgNVBAMMEkRyaXZlcnMg
VGVzdGluZyBDQTAeFw0yNjA2MDQxOTQ5MzJaFw00NjA1MzAxOTQ5MzJaMFgxCzAJ
BgNVBAYTAlVTMREwDwYDVQQIDAhOZXcgWW9yazEQMA4GA1UECgwHTW9uZ29EQjEQ
MA4GA1UECwwHRHJpdmVyczESMBAGA1UEAwwJbG9jYWxob3N0MIIBIjANBgkqhkiG
9w0BAQEFAAOCAQ8AMIIBCgKCAQEArW0yzLwkdlz7NSdNZ1256b3FsMAVkLlsGzGZ
ajb2T4gIEII7kZs05bwfzDIG0z2/JspxPR7Z41tCqhw6gF1LwbLRkneuz43fVgky
3FfiSeyLn1Ke0rmooxpVS4LQ0zaCdrOJVDeQ1mcseRC/Lhx9X12jbqw4JRgv/xdr
IVITZTvMaWVzGimoSWcJrFO2ngPcb67nRsJGEJvFZfma49uLeCeDsvu0yRM1WfJR
98GfRZBv3oqM1EZi/bivGxug5oas7RCmRacuS1AWP0S9mNTHMXnNMB8UmpkbJcd3
QHJwrrUdwOG7PDqFyMKGaCBEAzhaIHuu6vLJeZcmmUqZrCRKvwIDAQABo3AwbjAd
BgNVHQ4EFgQUmcrWVWRh49l2ANGboddJF41bbtowHwYDVR0jBBgwFoAUy1lppluM
fDo7m9/Jm0ETbS2AYyEwLAYDVR0RBCUwI4IJbG9jYWxob3N0hwR/AAABhxAAAAAA
AAAAAAAAAAAAAAABMA0GCSqGSIb3DQEBCwUAA4IBAQC+iEdqHwcTGlpeCBoftJwr
IXxNbcKLsK9QfIe3IxM/Hf/B9FKmwZPWhe6N7ZNPNcWH+o8j3RHQdjKKFe9Tzszk
ibyaI12MgbcQKubBOdX4iDlmk+MvfFU00clucXcwsTJJNVn52BbIrXczXxjFdT/l
iu1a04shXGhm/WLD50bLtKa//vh3aIvJw6Z6G6/uzrGPSY6jpcWp12jcl1TW8vBZ
AEFmGsJ9Jtrdlv26mNqjiIYXk0tPsWUsIMCtRnO4iFQvDzm86cjVO2kzQ3WjOyBG
4/zyjA8RVa4C7wWeWbut6LnN+XtaXZP6RvbgKcKVfTAi+1ZTSoLDe4hJ8KGmrsHA
-----END CERTIFICATE-----
